target datalayout = "e-m:e-p270:32:32-p271:32:32-p272:64:64-i64:64-i128:128-f80:128-n8:16:32:64-S128"
target triple = "x86_64-pc-linux-gnu"

%"struct.std::array" = type { [32 x i8] }
%"class.std::basic_string_view" = type { i64, ptr }
%"class.folly::Range" = type { ptr, ptr }
%"class.folly::Range.0" = type { ptr, ptr }
%"class.folly::Range.1" = type { ptr, ptr }

@.str.4 = private unnamed_addr constant [52 x i8] c"array::at: __n (which is %zu) >= _Nm (which is %zu)\00", align 1

; Function Attrs: mustprogress nounwind uwtable
define linkonce_odr noundef nonnull align 1 dereferenceable(1) ptr @_ZNSt14__array_traitsIhLm32EE6_S_refERA32_Khm(ptr noundef nonnull align 1 dereferenceable(32) %0, i64 noundef %1) #0 comdat align 2 {
  %3 = alloca ptr, align 8
  %4 = alloca i64, align 8
  store ptr %0, ptr %3, align 8, !tbaa !23
  store i64 %1, ptr %4, align 8, !tbaa !75
  %5 = load ptr, ptr %3, align 8, !tbaa !23
  %6 = load i64, ptr %4, align 8, !tbaa !75
  %7 = getelementptr inbounds nuw [32 x i8], ptr %5, i64 0, i64 %6
  ret ptr %7
}

; Function Attrs: mustprogress nounwind willreturn memory(none) uwtable
define linkonce_odr noundef i64 @_ZNKSt5arrayIhLm32EE4sizeEv(ptr noundef nonnull align 1 dereferenceable(32) %0) #14 comdat align 2 {
  %2 = alloca ptr, align 8
  store ptr %0, ptr %2, align 8, !tbaa !25
  ret i64 32
}

; Function Attrs: mustprogress uwtable
define linkonce_odr noundef nonnull align 1 dereferenceable(1) ptr @_ZNSt5arrayIhLm32EE2atEm(ptr noundef nonnull align 1 dereferenceable(32) %0, i64 noundef %1) #1 comdat align 2 {
  %3 = alloca ptr, align 8
  %4 = alloca i64, align 8
  store ptr %0, ptr %3, align 8, !tbaa !25
  store i64 %1, ptr %4, align 8, !tbaa !75
  %5 = load ptr, ptr %3, align 8
  %6 = load i64, ptr %4, align 8, !tbaa !75
  %7 = icmp uge i64 %6, 32
  br i1 %7, label %8, label %10

8:                                                ; preds = %2
  %9 = load i64, ptr %4, align 8, !tbaa !75
  call void (ptr, ...) @_ZSt24__throw_out_of_range_fmtPKcz(ptr noundef @.str.4, i64 noundef %9, i64 noundef 32) #38
  unreachable

10:                                               ; preds = %2
  %11 = getelementptr inbounds nuw %"struct.std::array", ptr %5, i32 0, i32 0
  %12 = load i64, ptr %4, align 8, !tbaa !75
  %13 = call noundef nonnull align 1 dereferenceable(1) ptr @_ZNSt14__array_traitsIhLm32EE6_S_refERA32_Khm(ptr noundef nonnull align 1 dereferenceable(32) %11, i64 noundef %12) #27
  ret ptr %13
}

; Function Attrs: mustprogress nounwind willreturn memory(none) uwtable
define linkonce_odr noundef zeroext i1 @_ZNKSt5arrayIhLm32EE5emptyEv(ptr noundef nonnull align 1 dereferenceable(32) %0) #14 comdat align 2 {
  %2 = alloca ptr, align 8
  store ptr %0, ptr %2, align 8, !tbaa !25
  %3 = load ptr, ptr %2, align 8
  %4 = call noundef i64 @_ZNKSt5arrayIhLm32EE4sizeEv(ptr noundef nonnull align 1 dereferenceable(32) %3) #40
  %5 = icmp eq i64 %4, 0
  ret i1 %5
}

; Function Attrs: mustprogress nounwind uwtable
define linkonce_odr noundef ptr @_ZNK5folly5RangeIPKcE3endEv(ptr noundef nonnull align 8 dereferenceable(16) %0) #0 comdat align 2 {
  %2 = alloca ptr, align 8
  store ptr %0, ptr %2, align 8, !tbaa !27
  %3 = load ptr, ptr %2, align 8
  %4 = getelementptr inbounds nuw %"class.folly::Range.1", ptr %3, i32 0, i32 1
  %5 = load ptr, ptr %4, align 8, !tbaa !89
  ret ptr %5
}

; Function Attrs: mustprogress nounwind uwtable
define linkonce_odr noundef ptr @_ZNK5folly5RangeIPKcE5beginEv(ptr noundef nonnull align 8 dereferenceable(16) %0) #0 comdat align 2 {
  %2 = alloca ptr, align 8
  store ptr %0, ptr %2, align 8, !tbaa !27
  %3 = load ptr, ptr %2, align 8
  %4 = getelementptr inbounds nuw %"class.folly::Range.1", ptr %3, i32 0, i32 0
  %5 = load ptr, ptr %4, align 8, !tbaa !87
  ret ptr %5
}

; Function Attrs: mustprogress nounwind uwtable
define linkonce_odr void @_ZN5folly5RangeIPKcEC2ES2_m(ptr noundef nonnull align 8 dereferenceable(16) %0, ptr noundef %1, i64 noundef %2) unnamed_addr #0 comdat align 2 {
  %4 = alloca ptr, align 8
  %5 = alloca ptr, align 8
  %6 = alloca i64, align 8
  store ptr %0, ptr %4, align 8, !tbaa !27
  store ptr %1, ptr %5, align 8, !tbaa !23
  store i64 %2, ptr %6, align 8, !tbaa !75
  %7 = load ptr, ptr %4, align 8
  %8 = getelementptr inbounds nuw %"class.folly::Range.1", ptr %7, i32 0, i32 0
  %9 = load ptr, ptr %5, align 8, !tbaa !23
  store ptr %9, ptr %8, align 8, !tbaa !87
  %10 = getelementptr inbounds nuw %"class.folly::Range.1", ptr %7, i32 0, i32 1
  %11 = load ptr, ptr %5, align 8, !tbaa !23
  %12 = load i64, ptr %6, align 8, !tbaa !75
  %13 = getelementptr inbounds nuw i8, ptr %11, i64 %12
  store ptr %13, ptr %10, align 8, !tbaa !89
  ret void
}

; Function Attrs: mustprogress nounwind uwtable
define linkonce_odr noundef i64 @_ZNKSt17basic_string_viewIcSt11char_traitsIcEE4sizeEv(ptr noundef nonnull align 8 dereferenceable(16) %0) #0 comdat align 2 {
  %2 = alloca ptr, align 8
  store ptr %0, ptr %2, align 8, !tbaa !29
  %3 = load ptr, ptr %2, align 8
  %4 = getelementptr inbounds nuw %"class.std::basic_string_view", ptr %3, i32 0, i32 0
  %5 = load i64, ptr %4, align 8, !tbaa !86
  ret i64 %5
}

; Function Attrs: mustprogress nounwind uwtable
define linkonce_odr noundef ptr @_ZNKSt17basic_string_viewIcSt11char_traitsIcEE4dataEv(ptr noundef nonnull align 8 dereferenceable(16) %0) #0 comdat align 2 {
  %2 = alloca ptr, align 8
  store ptr %0, ptr %2, align 8, !tbaa !29
  %3 = load ptr, ptr %2, align 8
  %4 = getelementptr inbounds nuw %"class.std::basic_string_view", ptr %3, i32 0, i32 1
  %5 = load ptr, ptr %4, align 8, !tbaa !84
  ret ptr %5
}

; Function Attrs: mustprogress uwtable
define linkonce_odr void @_ZN5folly5RangeIPhEC2IhLm32EvEERSt5arrayIT_XT0_EE(ptr noundef nonnull align 8 dereferenceable(16) %0, ptr noundef nonnull align 1 dereferenceable(32) %1) unnamed_addr #1 comdat align 2 {
  %3 = alloca ptr, align 8
  %4 = alloca ptr, align 8
  store ptr %0, ptr %3, align 8, !tbaa !77
  store ptr %1, ptr %4, align 8, !tbaa !25
  %5 = load ptr, ptr %3, align 8
  %6 = getelementptr inbounds nuw %"class.folly::Range", ptr %5, i32 0, i32 0
  %7 = load ptr, ptr %4, align 8, !tbaa !25
  %8 = call noundef zeroext i1 @_ZNKSt5arrayIhLm32EE5emptyEv(ptr noundef nonnull align 1 dereferenceable(32) %7) #40
  br i1 %8, label %9, label %10

9:                                                ; preds = %2
  br label %13

10:                                               ; preds = %2
  %11 = load ptr, ptr %4, align 8, !tbaa !25
  %12 = call noundef nonnull align 1 dereferenceable(1) ptr @_ZNSt5arrayIhLm32EE2atEm(ptr noundef nonnull align 1 dereferenceable(32) %11, i64 noundef 0)
  br label %13

13:                                               ; preds = %10, %9
  %14 = phi ptr [ null, %9 ], [ %12, %10 ]
  store ptr %14, ptr %6, align 8, !tbaa !79
  %15 = getelementptr inbounds nuw %"class.folly::Range", ptr %5, i32 0, i32 1
  %16 = load ptr, ptr %4, align 8, !tbaa !25
  %17 = call noundef zeroext i1 @_ZNKSt5arrayIhLm32EE5emptyEv(ptr noundef nonnull align 1 dereferenceable(32) %16) #40
  br i1 %17, label %18, label %19

18:                                               ; preds = %13
  br label %23

19:                                               ; preds = %13
  %20 = load ptr, ptr %4, align 8, !tbaa !25
  %21 = call noundef nonnull align 1 dereferenceable(1) ptr @_ZNSt5arrayIhLm32EE2atEm(ptr noundef nonnull align 1 dereferenceable(32) %20, i64 noundef 0)
  %22 = getelementptr inbounds nuw i8, ptr %21, i64 32
  br label %23

23:                                               ; preds = %19, %18
  %24 = phi ptr [ null, %18 ], [ %22, %19 ]
  store ptr %24, ptr %15, align 8, !tbaa !81
  ret void
}

; Function Attrs: mustprogress uwtable
define linkonce_odr void @_ZN5folly3ssl11OpenSSLHash6sha256ENS_5RangeIPhEENS2_IPKhEE(ptr %0, ptr %1, ptr %2, ptr %3) #1 comdat align 2 {
  %5 = alloca %"class.folly::Range", align 8
  %6 = alloca %"class.folly::Range.0", align 8
  %7 = alloca %"class.folly::Range", align 8
  %8 = alloca %"class.folly::Range.0", align 8
  %9 = getelementptr inbounds nuw { ptr, ptr }, ptr %5, i32 0, i32 0
  store ptr %0, ptr %9, align 8
  %10 = getelementptr inbounds nuw { ptr, ptr }, ptr %5, i32 0, i32 1
  store ptr %1, ptr %10, align 8
  %11 = getelementptr inbounds nuw { ptr, ptr }, ptr %6, i32 0, i32 0
  store ptr %2, ptr %11, align 8
  %12 = getelementptr inbounds nuw { ptr, ptr }, ptr %6, i32 0, i32 1
  store ptr %3, ptr %12, align 8
  call void @llvm.memcpy.p0.p0.i64(ptr align 8 %7, ptr align 8 %5, i64 16, i1 false), !tbaa.struct !22
  %13 = call ptr @EVP_sha256()
  call void @llvm.memcpy.p0.p0.i64(ptr align 8 %8, ptr align 8 %6, i64 16, i1 false), !tbaa.struct !22
  %14 = getelementptr inbounds nuw { ptr, ptr }, ptr %7, i32 0, i32 0
  %15 = load ptr, ptr %14, align 8
  %16 = getelementptr inbounds nuw { ptr, ptr }, ptr %7, i32 0, i32 1
  %17 = load ptr, ptr %16, align 8
  %18 = getelementptr inbounds nuw { ptr, ptr }, ptr %8, i32 0, i32 0
  %19 = load ptr, ptr %18, align 8
  %20 = getelementptr inbounds nuw { ptr, ptr }, ptr %8, i32 0, i32 1
  %21 = load ptr, ptr %20, align 8
  call void @_ZN5folly3ssl11OpenSSLHash4hashENS_5RangeIPhEEPK9evp_md_stNS2_IPKhEE(ptr %15, ptr %17, ptr noundef %13, ptr %19, ptr %21)
  ret void
}

; Function Attrs: mustprogress uwtable
define linkonce_odr void @_ZN5folly5RangeIPKhEC2IPKcTnNSt9enable_ifIXaaL_ZNSt17integral_constantIbLb1EE5valueEEoosr3std7is_sameIT_S6_EE5valuesr3std7is_sameISA_PcEE5valueEiE4typeELi0EEERKNS0_ISA_EE(ptr noundef nonnull align 8 dereferenceable(16) %0, ptr noundef nonnull align 8 dereferenceable(16) %1) unnamed_addr #1 comdat align 2 {
  %3 = alloca ptr, align 8
  %4 = alloca ptr, align 8
  store ptr %0, ptr %3, align 8, !tbaa !31
  store ptr %1, ptr %4, align 8, !tbaa !27
  %5 = load ptr, ptr %3, align 8
  %6 = getelementptr inbounds nuw %"class.folly::Range.0", ptr %5, i32 0, i32 0
  %7 = load ptr, ptr %4, align 8, !tbaa !27
  %8 = call noundef ptr @_ZNK5folly5RangeIPKcE5beginEv(ptr noundef nonnull align 8 dereferenceable(16) %7)
  store ptr %8, ptr %6, align 8, !tbaa !33
  %9 = getelementptr inbounds nuw %"class.folly::Range.0", ptr %5, i32 0, i32 1
  %10 = load ptr, ptr %4, align 8, !tbaa !27
  %11 = call noundef ptr @_ZNK5folly5RangeIPKcE3endEv(ptr noundef nonnull align 8 dereferenceable(16) %10)
  store ptr %11, ptr %9, align 8, !tbaa !35
  ret void
}

; Function Attrs: mustprogress uwtable
define linkonce_odr void @_ZN5folly5RangeIPKcEC2ISt17basic_string_viewIcSt11char_traitsIcEEvS2_EERKT_(ptr noundef nonnull align 8 dereferenceable(16) %0, ptr noundef nonnull align 8 dereferenceable(16) %1) unnamed_addr #1 comdat align 2 {
  %3 = alloca ptr, align 8
  %4 = alloca ptr, align 8
  store ptr %0, ptr %3, align 8, !tbaa !27
  store ptr %1, ptr %4, align 8, !tbaa !29
  %5 = load ptr, ptr %3, align 8
  %6 = load ptr, ptr %4, align 8, !tbaa !29
  %7 = call noundef ptr @_ZNKSt17basic_string_viewIcSt11char_traitsIcEE4dataEv(ptr noundef nonnull align 8 dereferenceable(16) %6) #27
  %8 = load ptr, ptr %4, align 8, !tbaa !29
  %9 = call noundef i64 @_ZNKSt17basic_string_viewIcSt11char_traitsIcEE4sizeEv(ptr noundef nonnull align 8 dereferenceable(16) %8) #27
  call void @_ZN5folly5RangeIPKcEC2ES2_m(ptr noundef nonnull align 8 dereferenceable(16) %5, ptr noundef %7, i64 noundef %9)
  ret void
}

; Function Attrs: mustprogress uwtable
define linkonce_odr { ptr, ptr } @_ZN5folly5rangeIhLm32EEENS_5RangeIPT_EERSt5arrayIS2_XT0_EE(ptr noundef nonnull align 1 dereferenceable(32) %0) #1 comdat {
  %2 = alloca %"class.folly::Range", align 8
  %3 = alloca ptr, align 8
  store ptr %0, ptr %3, align 8, !tbaa !25
  %4 = load ptr, ptr %3, align 8, !tbaa !25
  call void @_ZN5folly5RangeIPhEC2IhLm32EvEERSt5arrayIT_XT0_EE(ptr noundef nonnull align 8 dereferenceable(16) %2, ptr noundef nonnull align 1 dereferenceable(32) %4)
  %5 = load { ptr, ptr }, ptr %2, align 8
  ret { ptr, ptr } %5
}

; Function Attrs: mustprogress nounwind uwtable
define void @_ZN5folly18RegexMatchCacheKey4initESt17basic_string_viewIcSt11char_traitsIcEE(ptr dead_on_unwind noalias writable sret(%"struct.std::array") align 1 %0, i64 %1, ptr %2) #0 align 2 personality ptr @__gxx_personality_v0 {
  %4 = alloca %"class.std::basic_string_view", align 8
  %5 = alloca %"class.folly::Range", align 8
  %6 = alloca %"class.folly::Range.0", align 8
  %7 = alloca %"class.folly::Range.1", align 8
  %8 = getelementptr inbounds nuw { i64, ptr }, ptr %4, i32 0, i32 0
  store i64 %1, ptr %8, align 8
  %9 = getelementptr inbounds nuw { i64, ptr }, ptr %4, i32 0, i32 1
  store ptr %2, ptr %9, align 8
  %10 = invoke { ptr, ptr } @_ZN5folly5rangeIhLm32EEENS_5RangeIPT_EERSt5arrayIS2_XT0_EE(ptr noundef nonnull align 1 dereferenceable(32) %0)
          to label %11 unwind label %27

11:                                               ; preds = %3
  %12 = getelementptr inbounds nuw { ptr, ptr }, ptr %5, i32 0, i32 0
  %13 = extractvalue { ptr, ptr } %10, 0
  store ptr %13, ptr %12, align 8
  %14 = getelementptr inbounds nuw { ptr, ptr }, ptr %5, i32 0, i32 1
  %15 = extractvalue { ptr, ptr } %10, 1
  store ptr %15, ptr %14, align 8
  call void @llvm.lifetime.start.p0(i64 16, ptr %7) #27
  invoke void @_ZN5folly5RangeIPKcEC2ISt17basic_string_viewIcSt11char_traitsIcEEvS2_EERKT_(ptr noundef nonnull align 8 dereferenceable(16) %7, ptr noundef nonnull align 8 dereferenceable(16) %4)
          to label %16 unwind label %27

16:                                               ; preds = %11
  invoke void @_ZN5folly5RangeIPKhEC2IPKcTnNSt9enable_ifIXaaL_ZNSt17integral_constantIbLb1EE5valueEEoosr3std7is_sameIT_S6_EE5valuesr3std7is_sameISA_PcEE5valueEiE4typeELi0EEERKNS0_ISA_EE(ptr noundef nonnull align 8 dereferenceable(16) %6, ptr noundef nonnull align 8 dereferenceable(16) %7)
          to label %17 unwind label %27

17:                                               ; preds = %16
  %18 = getelementptr inbounds nuw { ptr, ptr }, ptr %5, i32 0, i32 0
  %19 = load ptr, ptr %18, align 8
  %20 = getelementptr inbounds nuw { ptr, ptr }, ptr %5, i32 0, i32 1
  %21 = load ptr, ptr %20, align 8
  %22 = getelementptr inbounds nuw { ptr, ptr }, ptr %6, i32 0, i32 0
  %23 = load ptr, ptr %22, align 8
  %24 = getelementptr inbounds nuw { ptr, ptr }, ptr %6, i32 0, i32 1
  %25 = load ptr, ptr %24, align 8
  invoke void @_ZN5folly3ssl11OpenSSLHash6sha256ENS_5RangeIPhEENS2_IPKhEE(ptr %19, ptr %21, ptr %23, ptr %25)
          to label %26 unwind label %27

26:                                               ; preds = %17
  call void @llvm.lifetime.end.p0(i64 16, ptr %7) #27
  ret void

27:                                               ; preds = %17, %16, %11, %3
  %28 = landingpad { ptr, i32 }
          catch ptr null
  %29 = extractvalue { ptr, i32 } %28, 0
  call void @__clang_call_terminate(ptr %29) #37
  unreachable
}