; Function Attrs: mustprogress nounwind uwtable
define void @_ZN5folly18RegexMatchCacheKey4initESt17basic_string_viewIcSt11char_traitsIcEE(ptr dead_on_unwind noalias writable sret(%"struct.std::array") align 1 %0, i64 %1, ptr %2) local_unnamed_addr #0 align 2 personality ptr @__gxx_personality_v0 {
  %4 = invoke ptr @EVP_sha256()
          to label %.noexc unwind label %7

.noexc:                                           ; preds = %3
  %5 = getelementptr inbounds nuw i8, ptr %2, i64 %1
  %6 = getelementptr inbounds nuw i8, ptr %0, i64 32
  invoke void @_ZN5folly3ssl11OpenSSLHash4hashENS_5RangeIPhEEPK9evp_md_stNS2_IPKhEE(ptr %0, ptr nonnull %6, ptr noundef %4, ptr %2, ptr %5)
          to label %_ZN5folly3ssl11OpenSSLHash6sha256ENS_5RangeIPhEENS2_IPKhEE.exit unwind label %7

_ZN5folly3ssl11OpenSSLHash6sha256ENS_5RangeIPhEENS2_IPKhEE.exit: ; preds = %.noexc
  ret void

7:                                                ; preds = %.noexc, %3
  %8 = landingpad { ptr, i32 }
          catch ptr null
  %9 = extractvalue { ptr, i32 } %8, 0
  tail call void @__clang_call_terminate(ptr %9) #41
  unreachable
}